target datalayout = "e-m:e-p270:32:32-p271:32:32-p272:64:64-i64:64-i128:128-f80:128-n8:16:32:64-S128"
target triple = "x86_64-pc-linux-gnu"

%struct.expert_field = type { i32, i32 }

@is_uplink = internal global i32 0, align 4
@ei_gsm_a_dtap_extraneous_data = internal global %struct.expert_field zeroinitializer, align 4
@ei_gsm_a_dtap_missing_mandatory_element = internal global %struct.expert_field zeroinitializer, align 4
@.str.922 = private unnamed_addr constant [3 x i8] c" 1\00", align 1
@.str.923 = private unnamed_addr constant [3 x i8] c" 2\00", align 1
@.str.1332 = private unnamed_addr constant [18 x i8] c" Repeat indicator\00", align 1
@.str.1333 = private unnamed_addr constant [71 x i8] c"Missing Mandatory element (0x%02x) %s%s, rest of dissection is suspect\00", align 1

; Function Attrs: null_pointer_is_valid sspstrong uwtable
define internal void @dtap_cc_cc_est_conf(ptr noundef %0, ptr noundef %1, ptr noundef %2, i32 noundef %3, i32 noundef %4) #1 {
  %6 = alloca ptr, align 8
  %7 = alloca ptr, align 8
  %8 = alloca ptr, align 8
  %9 = alloca i32, align 4
  %10 = alloca i32, align 4
  %11 = alloca i32, align 4
  %12 = alloca i32, align 4
  %13 = alloca i32, align 4
  %14 = alloca i32, align 4
  store ptr %0, ptr %6, align 8
  store ptr %1, ptr %7, align 8
  store ptr %2, ptr %8, align 8
  store i32 %3, ptr %9, align 4
  store i32 %4, ptr %10, align 4
  call void @llvm.lifetime.start.p0(i64 4, ptr %11) #7
  call void @llvm.lifetime.start.p0(i64 4, ptr %12) #7
  call void @llvm.lifetime.start.p0(i64 4, ptr %13) #7
  %15 = load i32, ptr %9, align 4
  store i32 %15, ptr %11, align 4
  %16 = load i32, ptr %10, align 4
  store i32 %16, ptr %13, align 4
  store i32 1, ptr @is_uplink, align 4
  %17 = load i32, ptr %13, align 4
  %18 = icmp sle i32 %17, 0
  br i1 %18, label %19, label %20

19:                                               ; preds = %5
  store i32 1, ptr %14, align 4
  br label %137

20:                                               ; preds = %5
  %21 = load ptr, ptr %6, align 8
  %22 = load ptr, ptr %7, align 8
  %23 = load ptr, ptr %8, align 8
  %24 = load i32, ptr %11, align 4
  %25 = call zeroext i16 @elem_tv_short(ptr noundef %21, ptr noundef %22, ptr noundef %23, i8 noundef zeroext -48, i32 noundef 1, i32 noundef 43, i32 noundef %24, ptr noundef @.str.1332)
  %26 = zext i16 %25 to i32
  store i32 %26, ptr %12, align 4
  %27 = icmp ugt i32 %26, 0
  br i1 %27, label %28, label %35

28:                                               ; preds = %20
  %29 = load i32, ptr %12, align 4
  %30 = load i32, ptr %11, align 4
  %31 = add i32 %30, %29
  store i32 %31, ptr %11, align 4
  %32 = load i32, ptr %12, align 4
  %33 = load i32, ptr %13, align 4
  %34 = sub i32 %33, %32
  store i32 %34, ptr %13, align 4
  br label %35

35:                                               ; preds = %28, %20
  %36 = load i32, ptr %13, align 4
  %37 = icmp sgt i32 %36, 0
  br i1 %37, label %38, label %54

38:                                               ; preds = %35
  %39 = load ptr, ptr %6, align 8
  %40 = load ptr, ptr %7, align 8
  %41 = load ptr, ptr %8, align 8
  %42 = load i32, ptr %11, align 4
  %43 = load i32, ptr %13, align 4
  %44 = call zeroext i16 @elem_tlv(ptr noundef %39, ptr noundef %40, ptr noundef %41, i8 noundef zeroext 4, i32 noundef 1, i32 noundef 20, i32 noundef %42, i32 noundef %43, ptr noundef @.str.922)
  %45 = zext i16 %44 to i32
  store i32 %45, ptr %12, align 4
  %46 = icmp ugt i32 %45, 0
  br i1 %46, label %47, label %54

47:                                               ; preds = %38
  %48 = load i32, ptr %12, align 4
  %49 = load i32, ptr %11, align 4
  %50 = add i32 %49, %48
  store i32 %50, ptr %11, align 4
  %51 = load i32, ptr %12, align 4
  %52 = load i32, ptr %13, align 4
  %53 = sub i32 %52, %51
  store i32 %53, ptr %13, align 4
  br label %61

54:                                               ; preds = %38, %35
  %55 = load ptr, ptr %7, align 8
  %56 = load ptr, ptr %8, align 8
  %57 = load ptr, ptr %6, align 8
  %58 = load i32, ptr %11, align 4
  %59 = call ptr @get_gsm_a_msg_string(i32 noundef 1, i32 noundef 20)
  %60 = call ptr (ptr, ptr, ptr, ptr, i32, i32, ptr, ...) @proto_tree_add_expert_format(ptr noundef %55, ptr noundef %56, ptr noundef @ei_gsm_a_dtap_missing_mandatory_element, ptr noundef %57, i32 noundef %58, i32 noundef 0, ptr noundef @.str.1333, i32 noundef 4, ptr noundef %59, ptr noundef @.str.922)
  br label %61

61:                                               ; preds = %54, %47
  %62 = load i32, ptr %13, align 4
  %63 = icmp sle i32 %62, 0
  br i1 %63, label %64, label %65

64:                                               ; preds = %61
  store i32 1, ptr %14, align 4
  br label %137

65:                                               ; preds = %61
  %66 = load ptr, ptr %6, align 8
  %67 = load ptr, ptr %7, align 8
  %68 = load ptr, ptr %8, align 8
  %69 = load i32, ptr %11, align 4
  %70 = load i32, ptr %13, align 4
  %71 = call zeroext i16 @elem_tlv(ptr noundef %66, ptr noundef %67, ptr noundef %68, i8 noundef zeroext 4, i32 noundef 1, i32 noundef 20, i32 noundef %69, i32 noundef %70, ptr noundef @.str.923)
  %72 = zext i16 %71 to i32
  store i32 %72, ptr %12, align 4
  %73 = icmp ugt i32 %72, 0
  br i1 %73, label %74, label %81

74:                                               ; preds = %65
  %75 = load i32, ptr %12, align 4
  %76 = load i32, ptr %11, align 4
  %77 = add i32 %76, %75
  store i32 %77, ptr %11, align 4
  %78 = load i32, ptr %12, align 4
  %79 = load i32, ptr %13, align 4
  %80 = sub i32 %79, %78
  store i32 %80, ptr %13, align 4
  br label %81

81:                                               ; preds = %74, %65
  %82 = load i32, ptr %13, align 4
  %83 = icmp sle i32 %82, 0
  br i1 %83, label %84, label %85

84:                                               ; preds = %81
  store i32 1, ptr %14, align 4
  br label %137

85:                                               ; preds = %81
  %86 = load ptr, ptr %6, align 8
  %87 = load ptr, ptr %7, align 8
  %88 = load ptr, ptr %8, align 8
  %89 = load i32, ptr %11, align 4
  %90 = load i32, ptr %13, align 4
  %91 = call zeroext i16 @elem_tlv(ptr noundef %86, ptr noundef %87, ptr noundef %88, i8 noundef zeroext 8, i32 noundef 1, i32 noundef 27, i32 noundef %89, i32 noundef %90, ptr noundef null)
  %92 = zext i16 %91 to i32
  store i32 %92, ptr %12, align 4
  %93 = icmp ugt i32 %92, 0
  br i1 %93, label %94, label %101

94:                                               ; preds = %85
  %95 = load i32, ptr %12, align 4
  %96 = load i32, ptr %11, align 4
  %97 = add i32 %96, %95
  store i32 %97, ptr %11, align 4
  %98 = load i32, ptr %12, align 4
  %99 = load i32, ptr %13, align 4
  %100 = sub i32 %99, %98
  store i32 %100, ptr %13, align 4
  br label %101

101:                                              ; preds = %94, %85
  %102 = load i32, ptr %13, align 4
  %103 = icmp sle i32 %102, 0
  br i1 %103, label %104, label %105

104:                                              ; preds = %101
  store i32 1, ptr %14, align 4
  br label %137

105:                                              ; preds = %101
  %106 = load ptr, ptr %6, align 8
  %107 = load ptr, ptr %7, align 8
  %108 = load ptr, ptr %8, align 8
  %109 = load i32, ptr %11, align 4
  %110 = load i32, ptr %13, align 4
  %111 = call zeroext i16 @elem_tlv(ptr noundef %106, ptr noundef %107, ptr noundef %108, i8 noundef zeroext 64, i32 noundef 1, i32 noundef 54, i32 noundef %109, i32 noundef %110, ptr noundef null)
  %112 = zext i16 %111 to i32
  store i32 %112, ptr %12, align 4
  %113 = icmp ugt i32 %112, 0
  br i1 %113, label %114, label %121

114:                                              ; preds = %105
  %115 = load i32, ptr %12, align 4
  %116 = load i32, ptr %11, align 4
  %117 = add i32 %116, %115
  store i32 %117, ptr %11, align 4
  %118 = load i32, ptr %12, align 4
  %119 = load i32, ptr %13, align 4
  %120 = sub i32 %119, %118
  store i32 %120, ptr %13, align 4
  br label %121

121:                                              ; preds = %114, %105
  %122 = load i32, ptr %13, align 4
  %123 = icmp ugt i32 %122, 0
  br i1 %123, label %124, label %136

124:                                              ; preds = %121
  %125 = load ptr, ptr %7, align 8
  %126 = load ptr, ptr %8, align 8
  %127 = load ptr, ptr %6, align 8
  %128 = load i32, ptr %11, align 4
  %129 = load i32, ptr %13, align 4
  %130 = sub i32 %129, 0
  %131 = call ptr @proto_tree_add_expert(ptr noundef %125, ptr noundef %126, ptr noundef @ei_gsm_a_dtap_extraneous_data, ptr noundef %127, i32 noundef %128, i32 noundef %130)
  %132 = load i32, ptr %13, align 4
  %133 = sub i32 %132, 0
  %134 = load i32, ptr %11, align 4
  %135 = add i32 %134, %133
  store i32 %135, ptr %11, align 4
  br label %136

136:                                              ; preds = %124, %121
  store i32 0, ptr %14, align 4
  br label %137

137:                                              ; preds = %136, %104, %84, %64, %19
  call void @llvm.lifetime.end.p0(i64 4, ptr %13) #7
  call void @llvm.lifetime.end.p0(i64 4, ptr %12) #7
  call void @llvm.lifetime.end.p0(i64 4, ptr %11) #7
  %138 = load i32, ptr %14, align 4
  switch i32 %138, label %140 [
    i32 0, label %139
    i32 1, label %139
  ]

139:                                              ; preds = %137, %137
  ret void

140:                                              ; preds = %137
  unreachable
}