; Function Attrs: null_pointer_is_valid sspstrong uwtable
define internal void @dtap_cc_cc_est_conf(ptr noundef %0, ptr noundef %1, ptr noundef %2, i32 noundef %3, i32 noundef %4) #1 {
  store i1 true, ptr @is_uplink, align 4
  %6 = icmp slt i32 %4, 1
  br i1 %6, label %43, label %7

7:                                                ; preds = %5
  %8 = tail call zeroext i16 @elem_tv_short(ptr noundef %0, ptr noundef %1, ptr noundef %2, i8 noundef zeroext -48, i32 noundef 1, i32 noundef 43, i32 noundef %3, ptr noundef nonnull @.str.1332)
  %9 = zext i16 %8 to i32
  %10 = add i32 %3, %9
  %11 = sub nsw i32 %4, %9
  %12 = icmp sgt i32 %11, 0
  br i1 %12, label %13, label %19

13:                                               ; preds = %7
  %14 = tail call zeroext i16 @elem_tlv(ptr noundef %0, ptr noundef %1, ptr noundef %2, i8 noundef zeroext 4, i32 noundef 1, i32 noundef 20, i32 noundef %10, i32 noundef %11, ptr noundef nonnull @.str.922)
  %.not73 = icmp eq i16 %14, 0
  br i1 %.not73, label %19, label %15

15:                                               ; preds = %13
  %16 = zext i16 %14 to i32
  %17 = add i32 %10, %16
  %18 = sub nsw i32 %11, %16
  br label %22

19:                                               ; preds = %13, %7
  %20 = tail call ptr @get_gsm_a_msg_string(i32 noundef 1, i32 noundef 20)
  %21 = tail call ptr (ptr, ptr, ptr, ptr, i32, i32, ptr, ...) @proto_tree_add_expert_format(ptr noundef %1, ptr noundef %2, ptr noundef nonnull @ei_gsm_a_dtap_missing_mandatory_element, ptr noundef %0, i32 noundef %10, i32 noundef 0, ptr noundef nonnull @.str.1333, i32 noundef 4, ptr noundef %20, ptr noundef nonnull @.str.922)
  br label %22

22:                                               ; preds = %19, %15
  %.163 = phi i32 [ %17, %15 ], [ %10, %19 ]
  %.1 = phi i32 [ %18, %15 ], [ %11, %19 ]
  %23 = icmp slt i32 %.1, 1
  br i1 %23, label %43, label %24

24:                                               ; preds = %22
  %25 = tail call zeroext i16 @elem_tlv(ptr noundef %0, ptr noundef %1, ptr noundef %2, i8 noundef zeroext 4, i32 noundef 1, i32 noundef 20, i32 noundef %.163, i32 noundef %.1, ptr noundef nonnull @.str.923)
  %26 = zext i16 %25 to i32
  %27 = sub nsw i32 %.1, %26
  %28 = icmp slt i32 %27, 1
  br i1 %28, label %43, label %29

29:                                               ; preds = %24
  %30 = add i32 %.163, %26
  %31 = tail call zeroext i16 @elem_tlv(ptr noundef %0, ptr noundef %1, ptr noundef %2, i8 noundef zeroext 8, i32 noundef 1, i32 noundef 27, i32 noundef %30, i32 noundef %27, ptr noundef null)
  %32 = zext i16 %31 to i32
  %33 = sub nsw i32 %27, %32
  %34 = icmp slt i32 %33, 1
  br i1 %34, label %43, label %35

35:                                               ; preds = %29
  %36 = add i32 %30, %32
  %37 = tail call zeroext i16 @elem_tlv(ptr noundef %0, ptr noundef %1, ptr noundef %2, i8 noundef zeroext 64, i32 noundef 1, i32 noundef 54, i32 noundef %36, i32 noundef %33, ptr noundef null)
  %38 = zext i16 %37 to i32
  %.not77 = icmp eq i32 %33, %38
  br i1 %.not77, label %43, label %39

39:                                               ; preds = %35
  %40 = sub nsw i32 %33, %38
  %41 = add i32 %36, %38
  %42 = tail call ptr @proto_tree_add_expert(ptr noundef %1, ptr noundef %2, ptr noundef nonnull @ei_gsm_a_dtap_extraneous_data, ptr noundef %0, i32 noundef %41, i32 noundef %40)
  br label %43

43:                                               ; preds = %35, %39, %29, %24, %22, %5
  ret void
}